target datalayout = "e-m:e-p270:32:32-p271:32:32-p272:64:64-i64:64-i128:128-f80:128-n8:16:32:64-S128"
target triple = "x86_64-unknown-linux-gnu"

@tcg_allowed = external global i8, align 1

; Function Attrs: nounwind sspstrong uwtable
define dso_local zeroext i1 @riscv_cpu_accelerator_compatible(ptr noundef %cpu) #0 {
entry:
  %retval = alloca i1, align 1
  %cpu.addr = alloca ptr, align 8
  store ptr %cpu, ptr %cpu.addr, align 8
  %0 = load i8, ptr @tcg_allowed, align 1
  %tobool = trunc i8 %0 to i1
  br i1 %tobool, label %if.then, label %if.end

if.then:                                          ; preds = %entry
  %1 = load ptr, ptr %cpu.addr, align 8
  %call = call zeroext i1 @riscv_cpu_tcg_compatible(ptr noundef %1)
  store i1 %call, ptr %retval, align 1
  br label %return

if.end:                                           ; preds = %entry
  store i1 true, ptr %retval, align 1
  br label %return

return:                                           ; preds = %if.end, %if.then
  %2 = load i1, ptr %retval, align 1
  ret i1 %2
}