; Function Attrs: nounwind sspstrong uwtable
define dso_local zeroext i1 @riscv_cpu_accelerator_compatible(ptr noundef %cpu) local_unnamed_addr #3 {
entry:
  %0 = load i8, ptr @tcg_allowed, align 1
  %tobool = trunc i8 %0 to i1
  br i1 %tobool, label %if.then, label %return

if.then:                                          ; preds = %entry
  %call = tail call zeroext i1 @riscv_cpu_tcg_compatible(ptr noundef %cpu) #14
  br label %return

return:                                           ; preds = %entry, %if.then
  %retval.0 = phi i1 [ %call, %if.then ], [ true, %entry ]
  ret i1 %retval.0
}